target datalayout = "e-m:e-p270:32:32-p271:32:32-p272:64:64-i64:64-i128:128-f80:128-n8:16:32:64-S128"
target triple = "x86_64-pc-linux-gnu"

%"struct.duckdb::roaring::RunContainerRLEPair" = type { i16, i16 }
%"struct.duckdb::roaring::ContainerScanState" = type { ptr, i64, i64, i64 }
%"struct.duckdb::roaring::RunContainerScanState" = type { %"struct.duckdb::roaring::ContainerScanState", %"struct.duckdb::roaring::RunContainerRLEPair", i8, i64, i64, ptr }

; Function Attrs: mustprogress nounwind uwtable
define linkonce_odr noundef i64 @_ZN6duckdb8MinValueImEET_S1_S1_(i64 noundef %0, i64 noundef %1) #2 comdat {
  %3 = alloca i64, align 8
  %4 = alloca i64, align 8
  store i64 %0, ptr %3, align 8, !tbaa !8
  store i64 %1, ptr %4, align 8, !tbaa !8
  %5 = load i64, ptr %3, align 8, !tbaa !8
  %6 = load i64, ptr %4, align 8, !tbaa !8
  %7 = icmp ult i64 %5, %6
  br i1 %7, label %8, label %10

8:                                                ; preds = %2
  %9 = load i64, ptr %3, align 8, !tbaa !8
  br label %12

10:                                               ; preds = %2
  %11 = load i64, ptr %4, align 8, !tbaa !8
  br label %12

12:                                               ; preds = %10, %8
  %13 = phi i64 [ %9, %8 ], [ %11, %10 ]
  ret i64 %13
}

; Function Attrs: mustprogress uwtable
define void @_ZN6duckdb7roaring21RunContainerScanState4SkipEm(ptr noundef nonnull align 8 dereferenceable(64) %0, i64 noundef %1) unnamed_addr #0 align 2 {
  %3 = alloca ptr, align 8
  %4 = alloca i64, align 8
  %5 = alloca i64, align 8
  %6 = alloca i64, align 8
  store ptr %0, ptr %3, align 8, !tbaa !448
  store i64 %1, ptr %4, align 8, !tbaa !8
  %7 = load ptr, ptr %3, align 8
  call void @llvm.lifetime.start.p0(i64 8, ptr %5) #19
  %8 = getelementptr inbounds nuw %"struct.duckdb::roaring::ContainerScanState", ptr %7, i32 0, i32 3
  %9 = load i64, ptr %8, align 8, !tbaa !208
  %10 = load i64, ptr %4, align 8, !tbaa !8
  %11 = add i64 %9, %10
  store i64 %11, ptr %5, align 8, !tbaa !8
  %12 = getelementptr inbounds nuw %"struct.duckdb::roaring::RunContainerScanState", ptr %7, i32 0, i32 3
  %13 = load i64, ptr %12, align 8, !tbaa !452
  %14 = icmp ne i64 %13, 0
  br i1 %14, label %19, label %15

15:                                               ; preds = %2
  %16 = load ptr, ptr %7, align 8, !tbaa !242
  %17 = getelementptr inbounds ptr, ptr %16, i64 5
  %18 = load ptr, ptr %17, align 8
  call void %18(ptr noundef nonnull align 8 dereferenceable(64) %7)
  br label %19

19:                                               ; preds = %15, %2
  br label %20

20:                                               ; preds = %56, %19
  %21 = getelementptr inbounds nuw %"struct.duckdb::roaring::ContainerScanState", ptr %7, i32 0, i32 3
  %22 = load i64, ptr %21, align 8, !tbaa !208
  %23 = load i64, ptr %5, align 8, !tbaa !8
  %24 = icmp ult i64 %22, %23
  br i1 %24, label %25, label %30

25:                                               ; preds = %20
  %26 = getelementptr inbounds nuw %"struct.duckdb::roaring::RunContainerScanState", ptr %7, i32 0, i32 2
  %27 = load i8, ptr %26, align 4, !tbaa !450, !range !278, !noundef !279
  %28 = trunc i8 %27 to i1
  %29 = xor i1 %28, true
  br label %30

30:                                               ; preds = %25, %20
  %31 = phi i1 [ false, %20 ], [ %29, %25 ]
  br i1 %31, label %32, label %57

32:                                               ; preds = %30
  call void @llvm.lifetime.start.p0(i64 8, ptr %6) #19
  %33 = getelementptr inbounds nuw %"struct.duckdb::roaring::RunContainerScanState", ptr %7, i32 0, i32 1
  %34 = getelementptr inbounds nuw %"struct.duckdb::roaring::RunContainerRLEPair", ptr %33, i32 0, i32 0
  %35 = load i16, ptr %34, align 8, !tbaa !456
  %36 = zext i16 %35 to i32
  %37 = add nsw i32 %36, 1
  %38 = getelementptr inbounds nuw %"struct.duckdb::roaring::RunContainerScanState", ptr %7, i32 0, i32 1
  %39 = getelementptr inbounds nuw %"struct.duckdb::roaring::RunContainerRLEPair", ptr %38, i32 0, i32 1
  %40 = load i16, ptr %39, align 2, !tbaa !457
  %41 = zext i16 %40 to i32
  %42 = add nsw i32 %37, %41
  %43 = sext i32 %42 to i64
  store i64 %43, ptr %6, align 8, !tbaa !8
  %44 = load i64, ptr %6, align 8, !tbaa !8
  %45 = load i64, ptr %5, align 8, !tbaa !8
  %46 = call noundef i64 @_ZN6duckdb8MinValueImEET_S1_S1_(i64 noundef %44, i64 noundef %45)
  %47 = getelementptr inbounds nuw %"struct.duckdb::roaring::ContainerScanState", ptr %7, i32 0, i32 3
  store i64 %46, ptr %47, align 8, !tbaa !208
  %48 = getelementptr inbounds nuw %"struct.duckdb::roaring::ContainerScanState", ptr %7, i32 0, i32 3
  %49 = load i64, ptr %48, align 8, !tbaa !208
  %50 = load i64, ptr %6, align 8, !tbaa !8
  %51 = icmp eq i64 %49, %50
  br i1 %51, label %52, label %56

52:                                               ; preds = %32
  %53 = load ptr, ptr %7, align 8, !tbaa !242
  %54 = getelementptr inbounds ptr, ptr %53, i64 5
  %55 = load ptr, ptr %54, align 8
  call void %55(ptr noundef nonnull align 8 dereferenceable(64) %7)
  br label %56

56:                                               ; preds = %52, %32
  call void @llvm.lifetime.end.p0(i64 8, ptr %6) #19
  br label %20, !llvm.loop !459

57:                                               ; preds = %30
  %58 = load i64, ptr %5, align 8, !tbaa !8
  %59 = getelementptr inbounds nuw %"struct.duckdb::roaring::ContainerScanState", ptr %7, i32 0, i32 3
  store i64 %58, ptr %59, align 8, !tbaa !208
  call void @llvm.lifetime.end.p0(i64 8, ptr %5) #19
  ret void
}