; Function Attrs: mustprogress uwtable
define void @_ZN6duckdb7roaring21RunContainerScanState4SkipEm(ptr noundef nonnull align 8 dereferenceable(64) %0, i64 noundef %1) unnamed_addr #0 align 2 {
  %3 = getelementptr inbounds nuw i8, ptr %0, i64 24
  %4 = load i64, ptr %3, align 8, !tbaa !186
  %5 = add i64 %4, %1
  %6 = getelementptr inbounds nuw i8, ptr %0, i64 40
  %7 = load i64, ptr %6, align 8, !tbaa !424
  %.not = icmp eq i64 %7, 0
  br i1 %.not, label %8, label %12

8:                                                ; preds = %2
  %9 = load ptr, ptr %0, align 8, !tbaa !136
  %10 = getelementptr inbounds nuw i8, ptr %9, i64 40
  %11 = load ptr, ptr %10, align 8
  tail call void %11(ptr noundef nonnull align 8 dereferenceable(64) %0)
  %.pre = load i64, ptr %3, align 8, !tbaa !186
  br label %12

12:                                               ; preds = %8, %2
  %13 = phi i64 [ %.pre, %8 ], [ %4, %2 ]
  %14 = icmp ult i64 %13, %5
  br i1 %14, label %.lr.ph, label %.critedge

.lr.ph:                                           ; preds = %12
  %15 = getelementptr inbounds nuw i8, ptr %0, i64 36
  %16 = getelementptr inbounds nuw i8, ptr %0, i64 32
  %17 = getelementptr inbounds nuw i8, ptr %0, i64 34
  br label %18

18:                                               ; preds = %.lr.ph, %33
  %19 = load i8, ptr %15, align 4, !tbaa !422, !range !319, !noundef !229
  %20 = trunc nuw i8 %19 to i1
  br i1 %20, label %.critedge, label %21

21:                                               ; preds = %18
  %22 = load i16, ptr %16, align 8, !tbaa !427
  %23 = zext i16 %22 to i64
  %24 = add nuw nsw i64 %23, 1
  %25 = load i16, ptr %17, align 2, !tbaa !428
  %26 = zext i16 %25 to i64
  %27 = add nuw nsw i64 %24, %26
  %28 = tail call noundef i64 @llvm.umin.i64(i64 %27, i64 %5)
  store i64 %28, ptr %3, align 8, !tbaa !186
  %.not6 = icmp ugt i64 %27, %5
  br i1 %.not6, label %33, label %29

29:                                               ; preds = %21
  %30 = load ptr, ptr %0, align 8, !tbaa !136
  %31 = getelementptr inbounds nuw i8, ptr %30, i64 40
  %32 = load ptr, ptr %31, align 8
  tail call void %32(ptr noundef nonnull align 8 dereferenceable(64) %0)
  %.pre8 = load i64, ptr %3, align 8, !tbaa !186
  br label %33

33:                                               ; preds = %29, %21
  %34 = phi i64 [ %.pre8, %29 ], [ %28, %21 ]
  %35 = icmp ult i64 %34, %5
  br i1 %35, label %18, label %.critedge, !llvm.loop !430

.critedge:                                        ; preds = %18, %33, %12
  store i64 %5, ptr %3, align 8, !tbaa !186
  ret void
}